; Function Attrs: nounwind uwtable
define ptr @fdt_get_alias(ptr noundef %0, ptr noundef readonly captures(none) %1) local_unnamed_addr #0 {
  %3 = alloca i32, align 4
  %4 = tail call i64 @strlen(ptr noundef nonnull dereferenceable(1) %1) #10
  %5 = tail call i32 @fdt_path_offset_namelen(ptr noundef %0, ptr noundef nonnull @.str.2, i32 noundef 8)
  %6 = icmp slt i32 %5, 0
  br i1 %6, label %fdt_get_alias_namelen.exit, label %7

7:                                                ; preds = %2
  %8 = trunc i64 %4 to i32
  call void @llvm.lifetime.start.p0(i64 4, ptr nonnull %3) #9
  %9 = call fastcc ptr @fdt_get_property_namelen_(ptr noundef %0, i32 noundef %5, ptr noundef nonnull readonly %1, i32 noundef %8, ptr noundef null, ptr noundef nonnull %3)
  %.not.i.i = icmp eq ptr %9, null
  br i1 %.not.i.i, label %fdt_getprop_namelen.exit.i, label %10

10:                                               ; preds = %7
  %11 = getelementptr inbounds nuw i8, ptr %0, i64 20
  %12 = load i8, ptr %11, align 1, !tbaa !3
  %13 = zext i8 %12 to i32
  %14 = shl nuw i32 %13, 24
  %15 = getelementptr inbounds nuw i8, ptr %0, i64 21
  %16 = load i8, ptr %15, align 1, !tbaa !3
  %17 = zext i8 %16 to i32
  %18 = shl nuw nsw i32 %17, 16
  %19 = or disjoint i32 %18, %14
  %20 = getelementptr inbounds nuw i8, ptr %0, i64 22
  %21 = load i8, ptr %20, align 1, !tbaa !3
  %22 = zext i8 %21 to i32
  %23 = shl nuw nsw i32 %22, 8
  %24 = or disjoint i32 %19, %23
  %25 = getelementptr inbounds nuw i8, ptr %0, i64 23
  %26 = load i8, ptr %25, align 1, !tbaa !3
  %27 = zext i8 %26 to i32
  %28 = or disjoint i32 %24, %27
  %29 = icmp ult i32 %28, 16
  br i1 %29, label %30, label %55

30:                                               ; preds = %10
  %31 = load i32, ptr %3, align 4, !tbaa !6
  %32 = and i32 %31, 7
  %.not11.i.i = icmp eq i32 %32, 4
  br i1 %.not11.i.i, label %55, label %33

33:                                               ; preds = %30
  %34 = getelementptr inbounds nuw i8, ptr %9, i64 4
  %35 = load i8, ptr %34, align 1, !tbaa !3
  %36 = zext i8 %35 to i32
  %37 = shl nuw i32 %36, 24
  %38 = getelementptr inbounds nuw i8, ptr %9, i64 5
  %39 = load i8, ptr %38, align 1, !tbaa !3
  %40 = zext i8 %39 to i32
  %41 = shl nuw nsw i32 %40, 16
  %42 = or disjoint i32 %41, %37
  %43 = getelementptr inbounds nuw i8, ptr %9, i64 6
  %44 = load i8, ptr %43, align 1, !tbaa !3
  %45 = zext i8 %44 to i32
  %46 = shl nuw nsw i32 %45, 8
  %47 = or disjoint i32 %42, %46
  %48 = getelementptr inbounds nuw i8, ptr %9, i64 7
  %49 = load i8, ptr %48, align 1, !tbaa !3
  %50 = zext i8 %49 to i32
  %51 = or disjoint i32 %47, %50
  %52 = icmp ugt i32 %51, 7
  br i1 %52, label %53, label %55

53:                                               ; preds = %33
  %54 = getelementptr inbounds nuw i8, ptr %9, i64 16
  br label %fdt_getprop_namelen.exit.i

55:                                               ; preds = %33, %30, %10
  %56 = getelementptr inbounds nuw i8, ptr %9, i64 12
  br label %fdt_getprop_namelen.exit.i

fdt_getprop_namelen.exit.i:                       ; preds = %55, %53, %7
  %.0.i.i = phi ptr [ %54, %53 ], [ %56, %55 ], [ null, %7 ]
  call void @llvm.lifetime.end.p0(i64 4, ptr nonnull %3) #9
  br label %fdt_get_alias_namelen.exit

fdt_get_alias_namelen.exit:                       ; preds = %2, %fdt_getprop_namelen.exit.i
  %.0.i = phi ptr [ %.0.i.i, %fdt_getprop_namelen.exit.i ], [ null, %2 ]
  ret ptr %.0.i
}